target datalayout = "e-m:e-p270:32:32-p271:32:32-p272:64:64-i64:64-i128:128-f80:128-n8:16:32:64-S128"
target triple = "x86_64-pc-linux-gnu"

%struct.erf_if_mapping = type { i64, i8, [8 x %struct.erf_if_info], ptr, ptr, i8, i32, i32, i64, i64 }
%struct.erf_if_info = type { i32, ptr, ptr, i32, %struct.anon.1 }
%struct.anon.1 = type { i8, [3 x i8] }

; Function Attrs: nounwind null_pointer_is_valid sspstrong uwtable
define internal i32 @erf_if_mapping_hash(ptr noundef %0) #6 {
  %2 = alloca ptr, align 8
  %3 = alloca ptr, align 8
  store ptr %0, ptr %2, align 8
  call void @llvm.lifetime.start.p0(i64 8, ptr %3) #16
  %4 = load ptr, ptr %2, align 8
  store ptr %4, ptr %3, align 8
  %5 = load ptr, ptr %3, align 8
  %6 = getelementptr inbounds nuw %struct.erf_if_mapping, ptr %5, i32 0, i32 0
  %7 = load i64, ptr %6, align 8
  %8 = trunc i64 %7 to i32
  %9 = shl i32 %8, 16
  %10 = load ptr, ptr %3, align 8
  %11 = getelementptr inbounds nuw %struct.erf_if_mapping, ptr %10, i32 0, i32 1
  %12 = load i8, ptr %11, align 8
  %13 = zext i8 %12 to i32
  %14 = or i32 %9, %13
  call void @llvm.lifetime.end.p0(i64 8, ptr %3) #16
  ret i32 %14
}