; Function Attrs: mustprogress nofree norecurse nosync nounwind null_pointer_is_valid sspstrong willreturn memory(argmem: read) uwtable
define internal range(i32 0, -65280) i32 @erf_if_mapping_hash(ptr noundef readonly captures(none) %0) #4 {
  %2 = load i64, ptr %0, align 8
  %3 = trunc i64 %2 to i32
  %4 = shl i32 %3, 16
  %5 = getelementptr inbounds nuw i8, ptr %0, i64 8
  %6 = load i8, ptr %5, align 8
  %7 = zext i8 %6 to i32
  %8 = or disjoint i32 %4, %7
  ret i32 %8
}